target datalayout = "e-m:e-p270:32:32-p271:32:32-p272:64:64-i64:64-i128:128-f80:128-n8:16:32:64-S128"
target triple = "x86_64-pc-linux-gnu"

%struct.AVCodecContext = type { ptr, i32, i32, ptr, i32, i32, ptr, ptr, ptr, i64, i32, i32, ptr, i32, %struct.AVRational, %struct.AVRational, %struct.AVRational, i32, i32, i32, i32, i32, %struct.AVRational, i32, i32, i32, i32, i32, i32, i32, i32, i32, i32, i32, ptr, ptr, i32, float, float, float, float, float, float, float, float, float, i32, i32, i32, i32, i32, i32, i32, i32, i32, i32, i32, i32, ptr, ptr, ptr, i32, i32, i32, i32, i32, i32, i32, i32, i32, i32, %struct.AVChannelLayout, i32, i32, i32, i32, i32, i32, i32, i32, ptr, i32, i32, i32, float, float, i32, i32, i32, i32, i32, ptr, i64, i64, float, float, i32, i32, ptr, ptr, i32, i32, i32, i32, i32, ptr, ptr, ptr, ptr, i32, i32, [8 x i64], i32, i32, i32, i32, i32, i32, i32, ptr, ptr, i32, i32, i32, i32, i32, i32, i32, i32, i32, i32, ptr, ptr, i32, i32, ptr, ptr, ptr, ptr, i32, i32, i64, i32, i32, i64, ptr, i64, ptr, i32, ptr, i32 }
%struct.AVRational = type { i32, i32 }
%struct.AVChannelLayout = type { i32, i32, %union.anon.0, ptr }
%union.anon.0 = type { i64 }
%struct.NuvContext = type { ptr, i32, i32, i32, i32, i32, ptr, [64 x i32], [64 x i32], [8 x i8], %struct.RTJpegContext }
%struct.RTJpegContext = type { i32, i32, %struct.IDCTDSPContext, [64 x i8], [64 x i32], [64 x i32], [64 x i16] }
%struct.IDCTDSPContext = type { ptr, ptr, ptr, ptr, ptr, ptr, [64 x i8], i32, i32 }

@.str.2 = private unnamed_addr constant [32 x i8] c"insufficient rtjpeg quant data\0A\00", align 1

; Function Attrs: nounwind uwtable
define internal i32 @get_quant(ptr noundef %0, ptr noundef %1, ptr noundef %2, i32 noundef %3) #1 {
  %5 = alloca i32, align 4
  %6 = alloca ptr, align 8
  %7 = alloca ptr, align 8
  %8 = alloca ptr, align 8
  %9 = alloca i32, align 4
  %10 = alloca i32, align 4
  %11 = alloca i32, align 4
  store ptr %0, ptr %6, align 8, !tbaa !4
  store ptr %1, ptr %7, align 8, !tbaa !29
  store ptr %2, ptr %8, align 8, !tbaa !54
  store i32 %3, ptr %9, align 4, !tbaa !47
  call void @llvm.lifetime.start.p0(i64 4, ptr %10) #6
  %12 = load i32, ptr %9, align 4, !tbaa !47
  %13 = icmp slt i32 %12, 512
  br i1 %13, label %14, label %16

14:                                               ; preds = %4
  %15 = load ptr, ptr %6, align 8, !tbaa !4
  call void (ptr, i32, ptr, ...) @av_log(ptr noundef %15, i32 noundef 16, ptr noundef @.str.2)
  store i32 -1094995529, ptr %5, align 4
  store i32 1, ptr %11, align 4
  br label %51

16:                                               ; preds = %4
  store i32 0, ptr %10, align 4, !tbaa !47
  br label %17

17:                                               ; preds = %28, %16
  %18 = load i32, ptr %10, align 4, !tbaa !47
  %19 = icmp slt i32 %18, 64
  br i1 %19, label %20, label %33

20:                                               ; preds = %17
  %21 = load ptr, ptr %8, align 8, !tbaa !54
  %22 = load i32, ptr %21, align 1, !tbaa !57
  %23 = load ptr, ptr %7, align 8, !tbaa !29
  %24 = getelementptr inbounds nuw %struct.NuvContext, ptr %23, i32 0, i32 7
  %25 = load i32, ptr %10, align 4, !tbaa !47
  %26 = sext i32 %25 to i64
  %27 = getelementptr inbounds [64 x i32], ptr %24, i64 0, i64 %26
  store i32 %22, ptr %27, align 4, !tbaa !47
  br label %28

28:                                               ; preds = %20
  %29 = load i32, ptr %10, align 4, !tbaa !47
  %30 = add nsw i32 %29, 1
  store i32 %30, ptr %10, align 4, !tbaa !47
  %31 = load ptr, ptr %8, align 8, !tbaa !54
  %32 = getelementptr inbounds i8, ptr %31, i64 4
  store ptr %32, ptr %8, align 8, !tbaa !54
  br label %17, !llvm.loop !65

33:                                               ; preds = %17
  store i32 0, ptr %10, align 4, !tbaa !47
  br label %34

34:                                               ; preds = %45, %33
  %35 = load i32, ptr %10, align 4, !tbaa !47
  %36 = icmp slt i32 %35, 64
  br i1 %36, label %37, label %50

37:                                               ; preds = %34
  %38 = load ptr, ptr %8, align 8, !tbaa !54
  %39 = load i32, ptr %38, align 1, !tbaa !57
  %40 = load ptr, ptr %7, align 8, !tbaa !29
  %41 = getelementptr inbounds nuw %struct.NuvContext, ptr %40, i32 0, i32 8
  %42 = load i32, ptr %10, align 4, !tbaa !47
  %43 = sext i32 %42 to i64
  %44 = getelementptr inbounds [64 x i32], ptr %41, i64 0, i64 %43
  store i32 %39, ptr %44, align 4, !tbaa !47
  br label %45

45:                                               ; preds = %37
  %46 = load i32, ptr %10, align 4, !tbaa !47
  %47 = add nsw i32 %46, 1
  store i32 %47, ptr %10, align 4, !tbaa !47
  %48 = load ptr, ptr %8, align 8, !tbaa !54
  %49 = getelementptr inbounds i8, ptr %48, i64 4
  store ptr %49, ptr %8, align 8, !tbaa !54
  br label %34, !llvm.loop !67

50:                                               ; preds = %34
  store i32 0, ptr %5, align 4
  store i32 1, ptr %11, align 4
  br label %51

51:                                               ; preds = %50, %14
  call void @llvm.lifetime.end.p0(i64 4, ptr %10) #6
  %52 = load i32, ptr %5, align 4
  ret i32 %52
}

; Function Attrs: cold nounwind optsize uwtable
define internal i32 @decode_init(ptr noundef %0) #0 {
  %2 = alloca i32, align 4
  %3 = alloca ptr, align 8
  %4 = alloca ptr, align 8
  %5 = alloca i32, align 4
  %6 = alloca i32, align 4
  store ptr %0, ptr %3, align 8, !tbaa !4
  call void @llvm.lifetime.start.p0(i64 8, ptr %4) #6
  %7 = load ptr, ptr %3, align 8, !tbaa !4
  %8 = getelementptr inbounds nuw %struct.AVCodecContext, ptr %7, i32 0, i32 6
  %9 = load ptr, ptr %8, align 8, !tbaa !9
  store ptr %9, ptr %4, align 8, !tbaa !29
  call void @llvm.lifetime.start.p0(i64 4, ptr %5) #6
  %10 = call ptr @av_frame_alloc()
  %11 = load ptr, ptr %4, align 8, !tbaa !29
  %12 = getelementptr inbounds nuw %struct.NuvContext, ptr %11, i32 0, i32 0
  store ptr %10, ptr %12, align 16, !tbaa !31
  %13 = load ptr, ptr %4, align 8, !tbaa !29
  %14 = getelementptr inbounds nuw %struct.NuvContext, ptr %13, i32 0, i32 0
  %15 = load ptr, ptr %14, align 16, !tbaa !31
  %16 = icmp ne ptr %15, null
  br i1 %16, label %18, label %17

17:                                               ; preds = %1
  store i32 -12, ptr %2, align 4
  store i32 1, ptr %6, align 4
  br label %66

18:                                               ; preds = %1
  %19 = load ptr, ptr %3, align 8, !tbaa !4
  %20 = getelementptr inbounds nuw %struct.AVCodecContext, ptr %19, i32 0, i32 23
  store i32 0, ptr %20, align 8, !tbaa !36
  %21 = load ptr, ptr %4, align 8, !tbaa !29
  %22 = getelementptr inbounds nuw %struct.NuvContext, ptr %21, i32 0, i32 6
  store ptr null, ptr %22, align 16, !tbaa !37
  %23 = load ptr, ptr %4, align 8, !tbaa !29
  %24 = getelementptr inbounds nuw %struct.NuvContext, ptr %23, i32 0, i32 2
  store i32 -1, ptr %24, align 4, !tbaa !38
  %25 = load ptr, ptr %4, align 8, !tbaa !29
  %26 = getelementptr inbounds nuw %struct.NuvContext, ptr %25, i32 0, i32 3
  store i32 0, ptr %26, align 16, !tbaa !39
  %27 = load ptr, ptr %4, align 8, !tbaa !29
  %28 = getelementptr inbounds nuw %struct.NuvContext, ptr %27, i32 0, i32 4
  store i32 0, ptr %28, align 4, !tbaa !40
  %29 = load ptr, ptr %3, align 8, !tbaa !4
  %30 = getelementptr inbounds nuw %struct.AVCodecContext, ptr %29, i32 0, i32 5
  %31 = load i32, ptr %30, align 4, !tbaa !41
  %32 = icmp eq i32 %31, 1196444242
  %33 = zext i1 %32 to i32
  %34 = load ptr, ptr %4, align 8, !tbaa !29
  %35 = getelementptr inbounds nuw %struct.NuvContext, ptr %34, i32 0, i32 1
  store i32 %33, ptr %35, align 8, !tbaa !42
  %36 = load ptr, ptr %3, align 8, !tbaa !4
  %37 = getelementptr inbounds nuw %struct.AVCodecContext, ptr %36, i32 0, i32 13
  %38 = load i32, ptr %37, align 8, !tbaa !43
  %39 = icmp ne i32 %38, 0
  br i1 %39, label %40, label %50

40:                                               ; preds = %18
  %41 = load ptr, ptr %3, align 8, !tbaa !4
  %42 = load ptr, ptr %4, align 8, !tbaa !29
  %43 = load ptr, ptr %3, align 8, !tbaa !4
  %44 = getelementptr inbounds nuw %struct.AVCodecContext, ptr %43, i32 0, i32 12
  %45 = load ptr, ptr %44, align 8, !tbaa !44
  %46 = load ptr, ptr %3, align 8, !tbaa !4
  %47 = getelementptr inbounds nuw %struct.AVCodecContext, ptr %46, i32 0, i32 13
  %48 = load i32, ptr %47, align 8, !tbaa !43
  %49 = call i32 @get_quant(ptr noundef %41, ptr noundef %42, ptr noundef %45, i32 noundef %48)
  br label %50

50:                                               ; preds = %40, %18
  %51 = load ptr, ptr %4, align 8, !tbaa !29
  %52 = getelementptr inbounds nuw %struct.NuvContext, ptr %51, i32 0, i32 10
  %53 = load ptr, ptr %3, align 8, !tbaa !4
  call void @ff_rtjpeg_init(ptr noundef %52, ptr noundef %53)
  %54 = load ptr, ptr %3, align 8, !tbaa !4
  %55 = load ptr, ptr %3, align 8, !tbaa !4
  %56 = getelementptr inbounds nuw %struct.AVCodecContext, ptr %55, i32 0, i32 18
  %57 = load i32, ptr %56, align 8, !tbaa !45
  %58 = load ptr, ptr %3, align 8, !tbaa !4
  %59 = getelementptr inbounds nuw %struct.AVCodecContext, ptr %58, i32 0, i32 19
  %60 = load i32, ptr %59, align 4, !tbaa !46
  %61 = call i32 @codec_reinit(ptr noundef %54, i32 noundef %57, i32 noundef %60, i32 noundef -1)
  store i32 %61, ptr %5, align 4, !tbaa !47
  %62 = icmp slt i32 %61, 0
  br i1 %62, label %63, label %65

63:                                               ; preds = %50
  %64 = load i32, ptr %5, align 4, !tbaa !47
  store i32 %64, ptr %2, align 4
  store i32 1, ptr %6, align 4
  br label %66

65:                                               ; preds = %50
  store i32 0, ptr %2, align 4
  store i32 1, ptr %6, align 4
  br label %66

66:                                               ; preds = %65, %63, %17
  call void @llvm.lifetime.end.p0(i64 4, ptr %5) #6
  call void @llvm.lifetime.end.p0(i64 8, ptr %4) #6
  %67 = load i32, ptr %2, align 4
  ret i32 %67
}