; Function Attrs: cold nounwind optsize uwtable
define internal range(i32 -2147483648, 1) i32 @decode_init(ptr noundef %0) #0 {
  %2 = getelementptr inbounds nuw i8, ptr %0, i64 32
  %3 = load ptr, ptr %2, align 8, !tbaa !4
  %4 = tail call ptr @av_frame_alloc() #6
  store ptr %4, ptr %3, align 16, !tbaa !27
  %.not = icmp eq ptr %4, null
  br i1 %.not, label %39, label %5

5:                                                ; preds = %1
  %6 = getelementptr inbounds nuw i8, ptr %0, i64 136
  store i32 0, ptr %6, align 8, !tbaa !32
  %7 = getelementptr inbounds nuw i8, ptr %3, i64 32
  store ptr null, ptr %7, align 16, !tbaa !33
  %8 = getelementptr inbounds nuw i8, ptr %3, i64 12
  store i32 -1, ptr %8, align 4, !tbaa !34
  %9 = getelementptr inbounds nuw i8, ptr %3, i64 16
  store i32 0, ptr %9, align 16, !tbaa !35
  %10 = getelementptr inbounds nuw i8, ptr %3, i64 20
  store i32 0, ptr %10, align 4, !tbaa !36
  %11 = getelementptr inbounds nuw i8, ptr %0, i64 28
  %12 = load i32, ptr %11, align 4, !tbaa !37
  %13 = icmp eq i32 %12, 1196444242
  %14 = zext i1 %13 to i32
  %15 = getelementptr inbounds nuw i8, ptr %3, i64 8
  store i32 %14, ptr %15, align 8, !tbaa !38
  %16 = getelementptr inbounds nuw i8, ptr %0, i64 80
  %17 = load i32, ptr %16, align 8, !tbaa !39
  %.not23 = icmp eq i32 %17, 0
  br i1 %.not23, label %get_quant.exit, label %18

18:                                               ; preds = %5
  %19 = icmp slt i32 %17, 512
  br i1 %19, label %23, label %.preheader17.i

.preheader17.i:                                   ; preds = %18
  %20 = getelementptr inbounds nuw i8, ptr %0, i64 72
  %21 = load ptr, ptr %20, align 8, !tbaa !40
  %22 = getelementptr inbounds nuw i8, ptr %3, i64 40
  br label %25

23:                                               ; preds = %18
  tail call void (ptr, i32, ptr, ...) @av_log(ptr noundef nonnull %0, i32 noundef 16, ptr noundef nonnull @.str.2) #6
  br label %get_quant.exit

.preheader.i:                                     ; preds = %25
  %24 = getelementptr inbounds nuw i8, ptr %3, i64 296
  br label %29

25:                                               ; preds = %25, %.preheader17.i
  %indvars.iv.i = phi i64 [ 0, %.preheader17.i ], [ %indvars.iv.next.i, %25 ]
  %.01518.i = phi ptr [ %21, %.preheader17.i ], [ %28, %25 ]
  %26 = load i32, ptr %.01518.i, align 1, !tbaa !41
  %27 = getelementptr inbounds nuw [64 x i32], ptr %22, i64 0, i64 %indvars.iv.i
  store i32 %26, ptr %27, align 4, !tbaa !42
  %indvars.iv.next.i = add nuw nsw i64 %indvars.iv.i, 1
  %28 = getelementptr inbounds nuw i8, ptr %.01518.i, i64 4
  %exitcond.not.i = icmp eq i64 %indvars.iv.next.i, 64
  br i1 %exitcond.not.i, label %.preheader.i, label %25, !llvm.loop !43

29:                                               ; preds = %29, %.preheader.i
  %indvars.iv23.i = phi i64 [ 0, %.preheader.i ], [ %indvars.iv.next24.i, %29 ]
  %.11620.i = phi ptr [ %28, %.preheader.i ], [ %32, %29 ]
  %30 = load i32, ptr %.11620.i, align 1, !tbaa !41
  %31 = getelementptr inbounds nuw [64 x i32], ptr %24, i64 0, i64 %indvars.iv23.i
  store i32 %30, ptr %31, align 4, !tbaa !42
  %indvars.iv.next24.i = add nuw nsw i64 %indvars.iv23.i, 1
  %32 = getelementptr inbounds nuw i8, ptr %.11620.i, i64 4
  %exitcond26.not.i = icmp eq i64 %indvars.iv.next24.i, 64
  br i1 %exitcond26.not.i, label %get_quant.exit, label %29, !llvm.loop !45

get_quant.exit:                                   ; preds = %29, %23, %5
  %33 = getelementptr inbounds nuw i8, ptr %3, i64 560
  tail call void @ff_rtjpeg_init(ptr noundef nonnull %33, ptr noundef nonnull %0) #6
  %34 = getelementptr inbounds nuw i8, ptr %0, i64 112
  %35 = load i32, ptr %34, align 8, !tbaa !46
  %36 = getelementptr inbounds nuw i8, ptr %0, i64 116
  %37 = load i32, ptr %36, align 4, !tbaa !47
  %38 = tail call fastcc i32 @codec_reinit(ptr noundef nonnull %0, i32 noundef %35, i32 noundef %37, i32 noundef -1)
  %. = tail call i32 @llvm.smin.i32(i32 %38, i32 0)
  br label %39

39:                                               ; preds = %get_quant.exit, %1
  %.0 = phi i32 [ -12, %1 ], [ %., %get_quant.exit ]
  ret i32 %.0
}